	.section	__TEXT,__text,regular,pure_instructions
	.build_version macos, 11, 0	sdk_version 11, 3
	.globl	_foo                            ## -- Begin function foo
	.p2align	4, 0x90
_foo:                                   ## @foo
	.cfi_startproc
## %bb.0:
	pushq	%rbp
	.cfi_def_cfa_offset 16
	.cfi_offset %rbp, -16
	movq	%rsp, %rbp
	.cfi_def_cfa_register %rbp
	movl	%edi, -8(%rbp)
	movl	%esi, -12(%rbp)
	movl	-8(%rbp), %eax
	cmpl	-12(%rbp), %eax
	jle	LBB0_2
## %bb.1:
	movl	-8(%rbp), %eax
	addl	$5, %eax
	movl	%eax, -4(%rbp)
	jmp	LBB0_3
LBB0_2:
	movl	-8(%rbp), %eax
	subl	$5, %eax
	movl	%eax, -4(%rbp)
LBB0_3:
	movl	-4(%rbp), %eax
	popq	%rbp
	retq
	.cfi_endproc
                                        ## -- End function
	.globl	_main                           ## -- Begin function main
	.p2align	4, 0x90
_main:                                  ## @main
	.cfi_startproc
## %bb.0:
	pushq	%rbp
	.cfi_def_cfa_offset 16
	.cfi_offset %rbp, -16
	movq	%rsp, %rbp
	.cfi_def_cfa_register %rbp
	movl	$15, %edi
	movl	$10, %esi
	callq	_foo
	movl	%eax, %edi
	callq	_println
	movl	$10, %eax
	movl	%eax, %edi
	movl	%eax, %esi
	callq	_foo
	movl	%eax, %edi
	callq	_println
	xorl	%eax, %eax
	popq	%rbp
	retq
	.cfi_endproc
                                        ## -- End function
.subsections_via_symbols
